#include <math.h>
#include <stdio.h>
#include <stdlib.h>
#include <string.h>

/* ?????????????????*/
int huiwen(char *a){
    int i,j,len;
    len=strlen(a);
    /*?????2?????????*/ 
    for(i=len/2-1,j=len/2;i>=0&&j<len;i--,j++){
       if(a[i]!=a[j]) break;                                           
                                                
     }
     if(i<0) return 1;
     else return 0;   
    
    }
int main(){
    char a[501],tmp[501];
    int i,j,k,len;
    scanf("%s",a);
    len=strlen(a);
   /*?????????1*/ 
    if(len<=1) return 0;
    
    /*?????????????????????2?4?6?8????*/ 
    for(i=2;i<=len;i+=2){
      /*??????????????????????????????i???????????????*/ 
       for(j=0;j+i<=len;j++){
           /*??for?????????? ?i??????tmp??    */              
          for(k=0;k<i;k++)
             tmp[k]=a[k+j];
              /* ?????????????*/
             tmp[k]='\0';
             
             /*??????????????????????*/
          if(huiwen(tmp)==1) printf("%s\n",tmp);
                            
       
       }   
     
        }
    
    getchar();
    getchar();
    return 0;
    
    }
